; Function Attrs: nounwind uwtable
define range(i32 -1, 1) i32 @H5HF__huge_bt2_filt_dir_remove(ptr noundef readonly captures(none) %0, ptr noundef captures(none) %1) local_unnamed_addr #0 {
  %3 = load i8, ptr @H5HF_init_g, align 1, !tbaa !3, !range !7, !noundef !8
  %4 = trunc nuw i8 %3 to i1
  %5 = load i8, ptr @H5_libterm_g, align 1, !range !7
  %6 = trunc nuw i8 %5 to i1
  %7 = xor i1 %6, true
  %8 = select i1 %4, i1 true, i1 %7
  br i1 %8, label %9, label %26, !prof !9

9:                                                ; preds = %2
  %10 = load ptr, ptr %1, align 8, !tbaa !60
  %11 = getelementptr inbounds nuw i8, ptr %10, i64 600
  %12 = load ptr, ptr %11, align 8, !tbaa !63
  %13 = load i64, ptr %0, align 8, !tbaa !51
  %14 = getelementptr inbounds nuw i8, ptr %0, i64 8
  %15 = load i64, ptr %14, align 8, !tbaa !53
  %16 = tail call i32 @H5MF_xfree(ptr noundef %12, i32 noundef 3, i64 noundef %13, i64 noundef %15) #6
  %17 = icmp slt i32 %16, 0
  br i1 %17, label %18, label %22

18:                                               ; preds = %9
  %19 = load i64, ptr @H5E_HEAP_g, align 8, !tbaa !10
  %20 = load i64, ptr @H5E_CANTFREE_g, align 8, !tbaa !10
  %21 = tail call i32 (ptr, ptr, i32, i64, i64, ptr, ...) @H5E_printf_stack(ptr noundef nonnull @.str.4, ptr noundef nonnull @__func__.H5HF__huge_bt2_filt_dir_remove, i32 noundef 806, i64 noundef %19, i64 noundef %20, ptr noundef nonnull @.str.5) #6
  br label %26

22:                                               ; preds = %9
  %23 = getelementptr inbounds nuw i8, ptr %0, i64 24
  %24 = load i64, ptr %23, align 8, !tbaa !56
  %25 = getelementptr inbounds nuw i8, ptr %1, i64 8
  store i64 %24, ptr %25, align 8, !tbaa !83
  br label %26

26:                                               ; preds = %18, %22, %2
  %.0 = phi i32 [ -1, %18 ], [ 0, %22 ], [ 0, %2 ]
  ret i32 %.0
}